; ModuleID = '49/26.c'
source_filename = "49/26.c"
target datalayout = "e-m:e-p270:32:32-p271:32:32-p272:64:64-i64:64-f80:128-n8:16:32:64-S128"
target triple = "x86_64-pc-linux-gnu"

@.str = private unnamed_addr constant [3 x i8] c"%c\00", align 1
@.str.1 = private unnamed_addr constant [4 x i8] c"%c\0A\00", align 1

; Function Attrs: noinline nounwind uwtable
define dso_local i32 @main() #0 {
  %1 = alloca i32, align 4
  %2 = alloca [100 x i8], align 16
  %3 = alloca [100 x i8], align 16
  %4 = alloca i32, align 4
  %5 = alloca i32, align 4
  %6 = alloca i32, align 4
  %7 = alloca i32, align 4
  %8 = alloca i32, align 4
  store i32 0, i32* %1, align 4
  %9 = bitcast [100 x i8]* %3 to i8*
  call void @llvm.memset.p0i8.i64(i8* align 16 %9, i8 0, i64 100, i1 false)
  %10 = getelementptr inbounds [100 x i8], [100 x i8]* %2, i64 0, i64 0
  %11 = call i32 (i8*, ...) bitcast (i32 (...)* @gets to i32 (i8*, ...)*)(i8* %10)
  %12 = getelementptr inbounds [100 x i8], [100 x i8]* %2, i64 0, i64 0
  %13 = call i64 @strlen(i8* %12) #4
  %14 = trunc i64 %13 to i32
  store i32 %14, i32* %4, align 4
  store i32 0, i32* %5, align 4
  br label %15

15:                                               ; preds = %28, %0
  %16 = load i32, i32* %5, align 4
  %17 = load i32, i32* %4, align 4
  %18 = icmp slt i32 %16, %17
  br i1 %18, label %19, label %31

19:                                               ; preds = %15
  %20 = load i32, i32* %5, align 4
  %21 = sext i32 %20 to i64
  %22 = getelementptr inbounds [100 x i8], [100 x i8]* %2, i64 0, i64 %21
  %23 = load i8, i8* %22, align 1
  %24 = load i32, i32* %5, align 4
  %25 = add nsw i32 %24, 1
  %26 = sext i32 %25 to i64
  %27 = getelementptr inbounds [100 x i8], [100 x i8]* %3, i64 0, i64 %26
  store i8 %23, i8* %27, align 1
  br label %28

28:                                               ; preds = %19
  %29 = load i32, i32* %5, align 4
  %30 = add nsw i32 %29, 1
  store i32 %30, i32* %5, align 4
  br label %15

31:                                               ; preds = %15
  store i32 2, i32* %5, align 4
  br label %32

32:                                               ; preds = %122, %31
  %33 = load i32, i32* %5, align 4
  %34 = load i32, i32* %4, align 4
  %35 = icmp sle i32 %33, %34
  br i1 %35, label %36, label %125

36:                                               ; preds = %32
  store i32 1, i32* %6, align 4
  br label %37

37:                                               ; preds = %118, %36
  %38 = load i32, i32* %6, align 4
  %39 = load i32, i32* %4, align 4
  %40 = add nsw i32 %39, 1
  %41 = load i32, i32* %5, align 4
  %42 = sub nsw i32 %40, %41
  %43 = icmp sle i32 %38, %42
  br i1 %43, label %44, label %121

44:                                               ; preds = %37
  %45 = load i32, i32* %6, align 4
  store i32 %45, i32* %7, align 4
  br label %46

46:                                               ; preds = %75, %44
  %47 = load i32, i32* %7, align 4
  %48 = load i32, i32* %6, align 4
  %49 = mul nsw i32 2, %48
  %50 = load i32, i32* %5, align 4
  %51 = add nsw i32 %49, %50
  %52 = sub nsw i32 %51, 1
  %53 = sdiv i32 %52, 2
  %54 = icmp sle i32 %47, %53
  br i1 %54, label %55, label %78

55:                                               ; preds = %46
  %56 = load i32, i32* %7, align 4
  %57 = sext i32 %56 to i64
  %58 = getelementptr inbounds [100 x i8], [100 x i8]* %3, i64 0, i64 %57
  %59 = load i8, i8* %58, align 1
  %60 = sext i8 %59 to i32
  %61 = load i32, i32* %5, align 4
  %62 = load i32, i32* %6, align 4
  %63 = mul nsw i32 2, %62
  %64 = add nsw i32 %61, %63
  %65 = sub nsw i32 %64, 1
  %66 = load i32, i32* %7, align 4
  %67 = sub nsw i32 %65, %66
  %68 = sext i32 %67 to i64
  %69 = getelementptr inbounds [100 x i8], [100 x i8]* %3, i64 0, i64 %68
  %70 = load i8, i8* %69, align 1
  %71 = sext i8 %70 to i32
  %72 = icmp eq i32 %60, %71
  br i1 %72, label %73, label %74

73:                                               ; preds = %55
  br label %75

74:                                               ; preds = %55
  br label %78

75:                                               ; preds = %73
  %76 = load i32, i32* %7, align 4
  %77 = add nsw i32 %76, 1
  store i32 %77, i32* %7, align 4
  br label %46

78:                                               ; preds = %74, %46
  %79 = load i32, i32* %7, align 4
  %80 = load i32, i32* %5, align 4
  %81 = load i32, i32* %6, align 4
  %82 = mul nsw i32 2, %81
  %83 = add nsw i32 %80, %82
  %84 = sub nsw i32 %83, 1
  %85 = sdiv i32 %84, 2
  %86 = add nsw i32 %85, 1
  %87 = icmp eq i32 %79, %86
  br i1 %87, label %88, label %117

88:                                               ; preds = %78
  %89 = load i32, i32* %6, align 4
  store i32 %89, i32* %8, align 4
  br label %90

90:                                               ; preds = %104, %88
  %91 = load i32, i32* %8, align 4
  %92 = load i32, i32* %6, align 4
  %93 = load i32, i32* %5, align 4
  %94 = add nsw i32 %92, %93
  %95 = sub nsw i32 %94, 1
  %96 = icmp slt i32 %91, %95
  br i1 %96, label %97, label %107

97:                                               ; preds = %90
  %98 = load i32, i32* %8, align 4
  %99 = sext i32 %98 to i64
  %100 = getelementptr inbounds [100 x i8], [100 x i8]* %3, i64 0, i64 %99
  %101 = load i8, i8* %100, align 1
  %102 = sext i8 %101 to i32
  %103 = call i32 (i8*, ...) @printf(i8* getelementptr inbounds ([3 x i8], [3 x i8]* @.str, i64 0, i64 0), i32 %102)
  br label %104

104:                                              ; preds = %97
  %105 = load i32, i32* %8, align 4
  %106 = add nsw i32 %105, 1
  store i32 %106, i32* %8, align 4
  br label %90

107:                                              ; preds = %90
  %108 = load i32, i32* %6, align 4
  %109 = load i32, i32* %5, align 4
  %110 = add nsw i32 %108, %109
  %111 = sub nsw i32 %110, 1
  %112 = sext i32 %111 to i64
  %113 = getelementptr inbounds [100 x i8], [100 x i8]* %3, i64 0, i64 %112
  %114 = load i8, i8* %113, align 1
  %115 = sext i8 %114 to i32
  %116 = call i32 (i8*, ...) @printf(i8* getelementptr inbounds ([4 x i8], [4 x i8]* @.str.1, i64 0, i64 0), i32 %115)
  br label %117

117:                                              ; preds = %107, %78
  br label %118

118:                                              ; preds = %117
  %119 = load i32, i32* %6, align 4
  %120 = add nsw i32 %119, 1
  store i32 %120, i32* %6, align 4
  br label %37

121:                                              ; preds = %37
  br label %122

122:                                              ; preds = %121
  %123 = load i32, i32* %5, align 4
  %124 = add nsw i32 %123, 1
  store i32 %124, i32* %5, align 4
  br label %32

125:                                              ; preds = %32
  ret i32 0
}

; Function Attrs: argmemonly nounwind willreturn
declare void @llvm.memset.p0i8.i64(i8* nocapture writeonly, i8, i64, i1 immarg) #1

declare dso_local i32 @gets(...) #2

; Function Attrs: nounwind readonly
declare dso_local i64 @strlen(i8*) #3

declare dso_local i32 @printf(i8*, ...) #2


!llvm.module.flags = !{!0}
!llvm.ident = !{!1}

!0 = !{i32 1, !"wchar_size", i32 4}
!1 = !{!"clang version 10.0.0-4ubuntu1 "}
